target datalayout = "e-m:e-p270:32:32-p271:32:32-p272:64:64-i64:64-i128:128-f80:128-n8:16:32:64-S128"
target triple = "x86_64-unknown-linux-gnu"

%struct.QemuMutex = type { %union.pthread_mutex_t, i8 }
%union.pthread_mutex_t = type { %struct.__pthread_mutex_s }
%struct.__pthread_mutex_s = type { i32, i32, i32, i32, i32, i16, i16, %struct.__pthread_internal_list }
%struct.__pthread_internal_list = type { ptr, ptr }
%struct.QTailQLink = type { ptr, ptr }
%struct.MirrorBlockJob = type { %struct.BlockJob, ptr, ptr, ptr, ptr, ptr, ptr, ptr, i8, i32, i8, i32, i32, i32, i8, i8, i64, i64, i64, ptr, ptr, ptr, ptr, %struct.anon.14, i32, i64, ptr, i32, i64, %union.anon.15, i32, i8, i32, i32, i8, i32, i64, i8, i8 }
%struct.BlockJob = type { %struct.Job, i32, i64, %struct.RateLimit, ptr, %struct.Notifier, %struct.Notifier, %struct.Notifier, %struct.Notifier, %struct.Notifier, ptr }
%struct.Job = type { ptr, ptr, ptr, i8, i8, ptr, ptr, %struct.ProgressMeter, ptr, i32, i32, %struct.QEMUTimer, i32, i8, i8, i8, i8, i8, i8, i32, ptr, %struct.NotifierList, %struct.NotifierList, %struct.NotifierList, %struct.NotifierList, %struct.NotifierList, %struct.anon.11, ptr, %struct.anon.12 }
%struct.ProgressMeter = type { i64, i64, %struct.QemuMutex }
%struct.QEMUTimer = type { i64, ptr, ptr, ptr, ptr, i32, i32 }
%struct.NotifierList = type { %struct.anon.10 }
%struct.anon.10 = type { ptr }
%struct.anon.11 = type { ptr, ptr }
%struct.anon.12 = type { ptr, ptr }
%struct.RateLimit = type { %struct.QemuMutex, i64, i64, i64, i64, i64 }
%struct.Notifier = type { ptr, %struct.anon.13 }
%struct.anon.13 = type { ptr, ptr }
%struct.anon.14 = type { ptr, ptr }
%union.anon.15 = type { %struct.QTailQLink }

@.str.1 = private unnamed_addr constant [23 x i8] c"../qemu/block/mirror.c\00", align 1
@.str.37 = private unnamed_addr constant [9 x i8] c"ret >= 0\00", align 1
@__PRETTY_FUNCTION__.mirror_cow_align = private unnamed_addr constant [62 x i8] c"int mirror_cow_align(MirrorBlockJob *, int64_t *, uint64_t *)\00", align 1

; Function Attrs: nounwind sspstrong uwtable
define internal i64 @mirror_clip_bytes(ptr noundef %s, i64 noundef %offset, i64 noundef %bytes) #0 {
entry:
  %s.addr = alloca ptr, align 8
  %offset.addr = alloca i64, align 8
  %bytes.addr = alloca i64, align 8
  %_a4 = alloca i64, align 8
  %_b5 = alloca i64, align 8
  %tmp = alloca i64, align 8
  store ptr %s, ptr %s.addr, align 8
  store i64 %offset, ptr %offset.addr, align 8
  store i64 %bytes, ptr %bytes.addr, align 8
  %0 = load i64, ptr %bytes.addr, align 8
  store i64 %0, ptr %_a4, align 8
  %1 = load ptr, ptr %s.addr, align 8
  %bdev_length = getelementptr inbounds %struct.MirrorBlockJob, ptr %1, i32 0, i32 18
  %2 = load i64, ptr %bdev_length, align 8
  %3 = load i64, ptr %offset.addr, align 8
  %sub = sub i64 %2, %3
  store i64 %sub, ptr %_b5, align 8
  %4 = load i64, ptr %_a4, align 8
  %5 = load i64, ptr %_b5, align 8
  %cmp = icmp slt i64 %4, %5
  br i1 %cmp, label %cond.true, label %cond.false

cond.true:                                        ; preds = %entry
  %6 = load i64, ptr %_a4, align 8
  br label %cond.end

cond.false:                                       ; preds = %entry
  %7 = load i64, ptr %_b5, align 8
  br label %cond.end

cond.end:                                         ; preds = %cond.false, %cond.true
  %cond = phi i64 [ %6, %cond.true ], [ %7, %cond.false ]
  store i64 %cond, ptr %tmp, align 8
  %8 = load i64, ptr %tmp, align 8
  ret i64 %8
}

; Function Attrs: nounwind sspstrong uwtable
define internal i32 @test_bit(i64 noundef %nr, ptr noundef %addr) #0 {
entry:
  %nr.addr = alloca i64, align 8
  %addr.addr = alloca ptr, align 8
  store i64 %nr, ptr %nr.addr, align 8
  store ptr %addr, ptr %addr.addr, align 8
  %0 = load ptr, ptr %addr.addr, align 8
  %1 = load i64, ptr %nr.addr, align 8
  %div = udiv i64 %1, 64
  %arrayidx = getelementptr i64, ptr %0, i64 %div
  %2 = load i64, ptr %arrayidx, align 8
  %3 = load i64, ptr %nr.addr, align 8
  %and = and i64 %3, 63
  %shr = lshr i64 %2, %and
  %and1 = and i64 1, %shr
  %conv = trunc i64 %and1 to i32
  ret i32 %conv
}

; Function Attrs: nounwind sspstrong uwtable
define internal i32 @mirror_cow_align(ptr noundef %s, ptr noundef %offset, ptr noundef %bytes) #0 {
entry:
  %s.addr = alloca ptr, align 8
  %offset.addr = alloca ptr, align 8
  %bytes.addr = alloca ptr, align 8
  %need_cow = alloca i8, align 1
  %ret = alloca i32, align 4
  %align_offset = alloca i64, align 8
  %align_bytes = alloca i64, align 8
  %max_bytes = alloca i32, align 4
  store ptr %s, ptr %s.addr, align 8
  store ptr %offset, ptr %offset.addr, align 8
  store ptr %bytes, ptr %bytes.addr, align 8
  store i32 0, ptr %ret, align 4
  %0 = load ptr, ptr %offset.addr, align 8
  %1 = load i64, ptr %0, align 8
  store i64 %1, ptr %align_offset, align 8
  %2 = load ptr, ptr %bytes.addr, align 8
  %3 = load i64, ptr %2, align 8
  store i64 %3, ptr %align_bytes, align 8
  %4 = load ptr, ptr %s.addr, align 8
  %granularity = getelementptr inbounds %struct.MirrorBlockJob, ptr %4, i32 0, i32 16
  %5 = load i64, ptr %granularity, align 8
  %6 = load ptr, ptr %s.addr, align 8
  %max_iov = getelementptr inbounds %struct.MirrorBlockJob, ptr %6, i32 0, i32 33
  %7 = load i32, ptr %max_iov, align 4
  %conv = sext i32 %7 to i64
  %mul = mul i64 %5, %conv
  %conv1 = trunc i64 %mul to i32
  store i32 %conv1, ptr %max_bytes, align 4
  %8 = load ptr, ptr %offset.addr, align 8
  %9 = load i64, ptr %8, align 8
  %10 = load ptr, ptr %s.addr, align 8
  %granularity2 = getelementptr inbounds %struct.MirrorBlockJob, ptr %10, i32 0, i32 16
  %11 = load i64, ptr %granularity2, align 8
  %div = sdiv i64 %9, %11
  %12 = load ptr, ptr %s.addr, align 8
  %cow_bitmap = getelementptr inbounds %struct.MirrorBlockJob, ptr %12, i32 0, i32 19
  %13 = load ptr, ptr %cow_bitmap, align 8
  %call = call i32 @test_bit(i64 noundef %div, ptr noundef %13)
  %tobool = icmp ne i32 %call, 0
  %lnot = xor i1 %tobool, true
  %frombool = zext i1 %lnot to i8
  store i8 %frombool, ptr %need_cow, align 1
  %14 = load ptr, ptr %offset.addr, align 8
  %15 = load i64, ptr %14, align 8
  %16 = load ptr, ptr %bytes.addr, align 8
  %17 = load i64, ptr %16, align 8
  %add = add i64 %15, %17
  %sub = sub i64 %add, 1
  %18 = load ptr, ptr %s.addr, align 8
  %granularity3 = getelementptr inbounds %struct.MirrorBlockJob, ptr %18, i32 0, i32 16
  %19 = load i64, ptr %granularity3, align 8
  %div4 = udiv i64 %sub, %19
  %20 = load ptr, ptr %s.addr, align 8
  %cow_bitmap5 = getelementptr inbounds %struct.MirrorBlockJob, ptr %20, i32 0, i32 19
  %21 = load ptr, ptr %cow_bitmap5, align 8
  %call6 = call i32 @test_bit(i64 noundef %div4, ptr noundef %21)
  %tobool7 = icmp ne i32 %call6, 0
  %lnot8 = xor i1 %tobool7, true
  %lnot.ext = zext i1 %lnot8 to i32
  %22 = load i8, ptr %need_cow, align 1
  %tobool9 = trunc i8 %22 to i1
  %conv10 = zext i1 %tobool9 to i32
  %or = or i32 %conv10, %lnot.ext
  %tobool11 = icmp ne i32 %or, 0
  %frombool12 = zext i1 %tobool11 to i8
  store i8 %frombool12, ptr %need_cow, align 1
  %23 = load i8, ptr %need_cow, align 1
  %tobool13 = trunc i8 %23 to i1
  br i1 %tobool13, label %if.then, label %if.end

if.then:                                          ; preds = %entry
  %24 = load ptr, ptr %s.addr, align 8
  %target = getelementptr inbounds %struct.MirrorBlockJob, ptr %24, i32 0, i32 1
  %25 = load ptr, ptr %target, align 8
  %call14 = call ptr @blk_bs(ptr noundef %25)
  %26 = load ptr, ptr %offset.addr, align 8
  %27 = load i64, ptr %26, align 8
  %28 = load ptr, ptr %bytes.addr, align 8
  %29 = load i64, ptr %28, align 8
  call void @bdrv_round_to_subclusters(ptr noundef %call14, i64 noundef %27, i64 noundef %29, ptr noundef %align_offset, ptr noundef %align_bytes)
  br label %if.end

if.end:                                           ; preds = %if.then, %entry
  %30 = load i64, ptr %align_bytes, align 8
  %31 = load i32, ptr %max_bytes, align 4
  %conv15 = sext i32 %31 to i64
  %cmp = icmp sgt i64 %30, %conv15
  br i1 %cmp, label %if.then17, label %if.end27

if.then17:                                        ; preds = %if.end
  %32 = load i32, ptr %max_bytes, align 4
  %conv18 = sext i32 %32 to i64
  store i64 %conv18, ptr %align_bytes, align 8
  %33 = load i8, ptr %need_cow, align 1
  %tobool19 = trunc i8 %33 to i1
  br i1 %tobool19, label %if.then20, label %if.end26

if.then20:                                        ; preds = %if.then17
  %34 = load i64, ptr %align_bytes, align 8
  %35 = load ptr, ptr %s.addr, align 8
  %target_cluster_size = getelementptr inbounds %struct.MirrorBlockJob, ptr %35, i32 0, i32 32
  %36 = load i32, ptr %target_cluster_size, align 8
  %conv21 = sext i32 %36 to i64
  %div22 = sdiv i64 %34, %conv21
  %37 = load ptr, ptr %s.addr, align 8
  %target_cluster_size23 = getelementptr inbounds %struct.MirrorBlockJob, ptr %37, i32 0, i32 32
  %38 = load i32, ptr %target_cluster_size23, align 8
  %conv24 = sext i32 %38 to i64
  %mul25 = mul i64 %div22, %conv24
  store i64 %mul25, ptr %align_bytes, align 8
  br label %if.end26

if.end26:                                         ; preds = %if.then20, %if.then17
  br label %if.end27

if.end27:                                         ; preds = %if.end26, %if.end
  %39 = load ptr, ptr %s.addr, align 8
  %40 = load i64, ptr %align_offset, align 8
  %41 = load i64, ptr %align_bytes, align 8
  %call28 = call i64 @mirror_clip_bytes(ptr noundef %39, i64 noundef %40, i64 noundef %41)
  store i64 %call28, ptr %align_bytes, align 8
  %42 = load i64, ptr %align_offset, align 8
  %43 = load i64, ptr %align_bytes, align 8
  %add29 = add i64 %42, %43
  %44 = load ptr, ptr %offset.addr, align 8
  %45 = load i64, ptr %44, align 8
  %46 = load ptr, ptr %bytes.addr, align 8
  %47 = load i64, ptr %46, align 8
  %add30 = add i64 %45, %47
  %sub31 = sub i64 %add29, %add30
  %conv32 = trunc i64 %sub31 to i32
  store i32 %conv32, ptr %ret, align 4
  %48 = load i64, ptr %align_offset, align 8
  %49 = load ptr, ptr %offset.addr, align 8
  store i64 %48, ptr %49, align 8
  %50 = load i64, ptr %align_bytes, align 8
  %51 = load ptr, ptr %bytes.addr, align 8
  store i64 %50, ptr %51, align 8
  %52 = load i32, ptr %ret, align 4
  %cmp33 = icmp sge i32 %52, 0
  br i1 %cmp33, label %if.then35, label %if.else

if.then35:                                        ; preds = %if.end27
  br label %if.end36

if.else:                                          ; preds = %if.end27
  call void @__assert_fail(ptr noundef @.str.37, ptr noundef @.str.1, i32 noundef 311, ptr noundef @__PRETTY_FUNCTION__.mirror_cow_align) #9
  unreachable

if.end36:                                         ; preds = %if.then35
  %53 = load i32, ptr %ret, align 4
  ret i32 %53
}