; Function Attrs: nounwind sspstrong uwtable
define internal range(i32 0, -2147483648) i32 @mirror_cow_align(ptr noundef readonly captures(none) %s, ptr noundef captures(none) %offset, ptr noundef captures(none) %bytes) #0 {
entry:
  %align_offset = alloca i64, align 8
  %align_bytes = alloca i64, align 8
  %0 = load i64, ptr %offset, align 8
  store i64 %0, ptr %align_offset, align 8
  %1 = load i64, ptr %bytes, align 8
  store i64 %1, ptr %align_bytes, align 8
  %granularity = getelementptr inbounds nuw i8, ptr %s, i64 608
  %2 = load i64, ptr %granularity, align 8
  %max_iov = getelementptr inbounds nuw i8, ptr %s, i64 748
  %3 = load i32, ptr %max_iov, align 4
  %4 = trunc i64 %2 to i32
  %conv1 = mul i32 %3, %4
  %conv1.fr28 = freeze i32 %conv1
  %div = sdiv i64 %0, %2
  %cow_bitmap = getelementptr inbounds nuw i8, ptr %s, i64 632
  %5 = load ptr, ptr %cow_bitmap, align 8
  %div2.i = lshr i64 %div, 6
  %arrayidx.i = getelementptr i64, ptr %5, i64 %div2.i
  %6 = load i64, ptr %arrayidx.i, align 8
  %and.i = and i64 %div, 63
  %add = add i64 %0, -1
  %sub = add i64 %add, %1
  %div4 = udiv i64 %sub, %2
  %div2.i23 = lshr i64 %div4, 6
  %arrayidx.i24 = getelementptr i64, ptr %5, i64 %div2.i23
  %7 = load i64, ptr %arrayidx.i24, align 8
  %and.i25 = and i64 %div4, 63
  %8 = shl nuw i64 1, %and.i
  %9 = and i64 %6, %8
  %10 = icmp ne i64 %9, 0
  %11 = shl nuw i64 1, %and.i25
  %12 = and i64 %11, %7
  %13 = icmp ne i64 %12, 0
  %tobool11.not = and i1 %10, %13
  br i1 %tobool11.not, label %if.end, label %if.end.thread

if.end:                                           ; preds = %entry
  %conv15 = sext i32 %conv1.fr28 to i64
  %spec.select = tail call i64 @llvm.smin.i64(i64 %1, i64 %conv15)
  br label %if.end27

if.end.thread:                                    ; preds = %entry
  %target = getelementptr inbounds nuw i8, ptr %s, i64 520
  %14 = load ptr, ptr %target, align 8
  %call14 = tail call ptr @blk_bs(ptr noundef %14) #12
  %15 = load i64, ptr %offset, align 8
  %16 = load i64, ptr %bytes, align 8
  call void @bdrv_round_to_subclusters(ptr noundef %call14, i64 noundef %15, i64 noundef %16, ptr noundef nonnull %align_offset, ptr noundef nonnull %align_bytes) #12
  %17 = load i64, ptr %align_bytes, align 8
  %conv1529 = sext i32 %conv1.fr28 to i64
  %cmp30 = icmp sgt i64 %17, %conv1529
  br i1 %cmp30, label %if.then20, label %if.end27

if.then20:                                        ; preds = %if.end.thread
  %target_cluster_size = getelementptr inbounds nuw i8, ptr %s, i64 744
  %18 = load i32, ptr %target_cluster_size, align 8
  %conv21 = sext i32 %18 to i64
  %19 = srem i64 %conv1529, %conv21
  %mul25 = sub nsw i64 %conv1529, %19
  br label %if.end27

if.end27:                                         ; preds = %if.end, %if.end.thread, %if.then20
  %20 = phi i64 [ %17, %if.end.thread ], [ %mul25, %if.then20 ], [ %spec.select, %if.end ]
  %21 = load i64, ptr %align_offset, align 8
  %22 = getelementptr i8, ptr %s, i64 624
  %s.val = load i64, ptr %22, align 8
  %sub.i = sub i64 %s.val, %21
  %cond.i = call i64 @llvm.smin.i64(i64 %20, i64 %sub.i)
  store i64 %cond.i, ptr %align_bytes, align 8
  %23 = load i64, ptr %offset, align 8
  %24 = load i64, ptr %bytes, align 8
  %add30.neg = add i64 %cond.i, %21
  %25 = add i64 %23, %24
  %sub31 = sub i64 %add30.neg, %25
  %conv32 = trunc i64 %sub31 to i32
  store i64 %21, ptr %offset, align 8
  store i64 %cond.i, ptr %bytes, align 8
  %cmp33 = icmp sgt i32 %conv32, -1
  br i1 %cmp33, label %if.end36, label %if.else

if.else:                                          ; preds = %if.end27
  call void @__assert_fail(ptr noundef nonnull @.str.37, ptr noundef nonnull @.str.1, i32 noundef 311, ptr noundef nonnull @__PRETTY_FUNCTION__.mirror_cow_align) #13
  unreachable

if.end36:                                         ; preds = %if.end27
  ret i32 %conv32
}